; Function Attrs: nounwind uwtable
define ptr @l_Array_forIn_x27Unsafe_loop___at_Lean_Meta_Grind_checkInvariants___spec__3___boxed(ptr noundef readonly captures(none) %0) local_unnamed_addr #0 {
  %2 = load ptr, ptr %0, align 8, !tbaa !4
  %3 = getelementptr inbounds nuw i8, ptr %0, i64 8
  %4 = load ptr, ptr %3, align 8, !tbaa !4
  %5 = getelementptr inbounds nuw i8, ptr %0, i64 16
  %6 = load ptr, ptr %5, align 8, !tbaa !4
  %7 = getelementptr inbounds nuw i8, ptr %0, i64 24
  %8 = load ptr, ptr %7, align 8, !tbaa !4
  %9 = getelementptr inbounds nuw i8, ptr %0, i64 32
  %10 = load ptr, ptr %9, align 8, !tbaa !4
  %11 = getelementptr inbounds nuw i8, ptr %0, i64 40
  %12 = load ptr, ptr %11, align 8, !tbaa !4
  %13 = getelementptr inbounds nuw i8, ptr %0, i64 48
  %14 = load ptr, ptr %13, align 8, !tbaa !4
  %15 = getelementptr inbounds nuw i8, ptr %0, i64 56
  %16 = load ptr, ptr %15, align 8, !tbaa !4
  %17 = getelementptr inbounds nuw i8, ptr %0, i64 64
  %18 = load ptr, ptr %17, align 8, !tbaa !4
  %19 = getelementptr inbounds nuw i8, ptr %0, i64 72
  %20 = load ptr, ptr %19, align 8, !tbaa !4
  %21 = getelementptr inbounds nuw i8, ptr %0, i64 80
  %22 = load ptr, ptr %21, align 8, !tbaa !4
  %23 = getelementptr inbounds nuw i8, ptr %0, i64 88
  %24 = load ptr, ptr %23, align 8, !tbaa !4
  %25 = getelementptr inbounds nuw i8, ptr %0, i64 96
  %26 = load ptr, ptr %25, align 8, !tbaa !4
  %27 = getelementptr inbounds nuw i8, ptr %0, i64 104
  %28 = load ptr, ptr %27, align 8, !tbaa !4
  %29 = getelementptr inbounds nuw i8, ptr %0, i64 112
  %30 = load ptr, ptr %29, align 8, !tbaa !4
  %31 = getelementptr inbounds nuw i8, ptr %0, i64 120
  %32 = load ptr, ptr %31, align 8, !tbaa !4
  %33 = getelementptr inbounds nuw i8, ptr %0, i64 128
  %34 = load ptr, ptr %33, align 8, !tbaa !4
  %35 = getelementptr i8, ptr %12, i64 8
  %.val57 = load i64, ptr %35, align 8, !tbaa !12
  %36 = ptrtoint ptr %12 to i64
  %37 = and i64 %36, 1
  %.not = icmp eq i64 %37, 0
  br i1 %.not, label %38, label %lean_dec.exit46

38:                                               ; preds = %1
  %39 = load i32, ptr %12, align 4, !tbaa !8
  %40 = icmp sgt i32 %39, 1
  br i1 %40, label %41, label %43, !prof !11

41:                                               ; preds = %38
  %42 = add nsw i32 %39, -1
  store i32 %42, ptr %12, align 4, !tbaa !8
  br label %lean_dec.exit46

43:                                               ; preds = %38
  %.not.i = icmp eq i32 %39, 0
  br i1 %.not.i, label %lean_dec.exit46, label %44

44:                                               ; preds = %43
  tail call void @lean_dec_ref_cold(ptr noundef nonnull %12) #4
  br label %lean_dec.exit46

lean_dec.exit46:                                  ; preds = %44, %43, %41, %1
  %45 = getelementptr i8, ptr %14, i64 8
  %.val = load i64, ptr %45, align 8, !tbaa !12
  %46 = ptrtoint ptr %14 to i64
  %47 = and i64 %46, 1
  %.not58 = icmp eq i64 %47, 0
  br i1 %.not58, label %48, label %lean_dec.exit45

48:                                               ; preds = %lean_dec.exit46
  %49 = load i32, ptr %14, align 4, !tbaa !8
  %50 = icmp sgt i32 %49, 1
  br i1 %50, label %51, label %53, !prof !11

51:                                               ; preds = %48
  %52 = add nsw i32 %49, -1
  store i32 %52, ptr %14, align 4, !tbaa !8
  br label %lean_dec.exit45

53:                                               ; preds = %48
  %.not.i47 = icmp eq i32 %49, 0
  br i1 %.not.i47, label %lean_dec.exit45, label %54

54:                                               ; preds = %53
  tail call void @lean_dec_ref_cold(ptr noundef nonnull %14) #4
  br label %lean_dec.exit45

lean_dec.exit45:                                  ; preds = %54, %53, %51, %lean_dec.exit46
  %55 = tail call ptr @l_Array_forIn_x27Unsafe_loop___at_Lean_Meta_Grind_checkInvariants___spec__3(ptr noundef %2, ptr poison, ptr poison, ptr noundef %8, ptr noundef %10, i64 noundef %.val57, i64 noundef %.val, ptr noundef %16, ptr noundef %18, ptr noundef %20, ptr noundef %22, ptr noundef %24, ptr noundef %26, ptr noundef %28, ptr noundef %30, ptr noundef %32, ptr noundef %34)
  %56 = ptrtoint ptr %10 to i64
  %57 = and i64 %56, 1
  %.not59 = icmp eq i64 %57, 0
  br i1 %.not59, label %58, label %lean_dec.exit44

58:                                               ; preds = %lean_dec.exit45
  %59 = load i32, ptr %10, align 4, !tbaa !8
  %60 = icmp sgt i32 %59, 1
  br i1 %60, label %61, label %63, !prof !11

61:                                               ; preds = %58
  %62 = add nsw i32 %59, -1
  store i32 %62, ptr %10, align 4, !tbaa !8
  br label %lean_dec.exit44

63:                                               ; preds = %58
  %.not.i49 = icmp eq i32 %59, 0
  br i1 %.not.i49, label %lean_dec.exit44, label %64

64:                                               ; preds = %63
  tail call void @lean_dec_ref_cold(ptr noundef nonnull %10) #4
  br label %lean_dec.exit44

lean_dec.exit44:                                  ; preds = %64, %63, %61, %lean_dec.exit45
  %65 = ptrtoint ptr %6 to i64
  %66 = and i64 %65, 1
  %.not60 = icmp eq i64 %66, 0
  br i1 %.not60, label %67, label %lean_dec.exit43

67:                                               ; preds = %lean_dec.exit44
  %68 = load i32, ptr %6, align 4, !tbaa !8
  %69 = icmp sgt i32 %68, 1
  br i1 %69, label %70, label %72, !prof !11

70:                                               ; preds = %67
  %71 = add nsw i32 %68, -1
  store i32 %71, ptr %6, align 4, !tbaa !8
  br label %lean_dec.exit43

72:                                               ; preds = %67
  %.not.i51 = icmp eq i32 %68, 0
  br i1 %.not.i51, label %lean_dec.exit43, label %73

73:                                               ; preds = %72
  tail call void @lean_dec_ref_cold(ptr noundef nonnull %6) #4
  br label %lean_dec.exit43

lean_dec.exit43:                                  ; preds = %73, %72, %70, %lean_dec.exit44
  %74 = ptrtoint ptr %4 to i64
  %75 = and i64 %74, 1
  %.not61 = icmp eq i64 %75, 0
  br i1 %.not61, label %76, label %lean_dec.exit42

76:                                               ; preds = %lean_dec.exit43
  %77 = load i32, ptr %4, align 4, !tbaa !8
  %78 = icmp sgt i32 %77, 1
  br i1 %78, label %79, label %81, !prof !11

79:                                               ; preds = %76
  %80 = add nsw i32 %77, -1
  store i32 %80, ptr %4, align 4, !tbaa !8
  br label %lean_dec.exit42

81:                                               ; preds = %76
  %.not.i53 = icmp eq i32 %77, 0
  br i1 %.not.i53, label %lean_dec.exit42, label %82

82:                                               ; preds = %81
  tail call void @lean_dec_ref_cold(ptr noundef nonnull %4) #4
  br label %lean_dec.exit42

lean_dec.exit42:                                  ; preds = %82, %81, %79, %lean_dec.exit43
  %83 = ptrtoint ptr %2 to i64
  %84 = and i64 %83, 1
  %.not62 = icmp eq i64 %84, 0
  br i1 %.not62, label %85, label %lean_dec.exit

85:                                               ; preds = %lean_dec.exit42
  %86 = load i32, ptr %2, align 4, !tbaa !8
  %87 = icmp sgt i32 %86, 1
  br i1 %87, label %88, label %90, !prof !11

88:                                               ; preds = %85
  %89 = add nsw i32 %86, -1
  store i32 %89, ptr %2, align 4, !tbaa !8
  br label %lean_dec.exit

90:                                               ; preds = %85
  %.not.i55 = icmp eq i32 %86, 0
  br i1 %.not.i55, label %lean_dec.exit, label %91

91:                                               ; preds = %90
  tail call void @lean_dec_ref_cold(ptr noundef nonnull %2) #4
  br label %lean_dec.exit

lean_dec.exit:                                    ; preds = %91, %90, %88, %lean_dec.exit42
  ret ptr %55
}